target datalayout = "e-m:e-p270:32:32-p271:32:32-p272:64:64-i64:64-i128:128-f80:128-n8:16:32:64-S128"
target triple = "x86_64-pc-linux-gnu"

%struct.archive_read = type { %struct.archive, ptr, i32, i64, i64, %struct.archive_read_client, [16 x %struct.archive_read_filter_bidder], ptr, i32, i64, i32, i32, [16 x %struct.archive_format_descriptor], ptr, ptr, ptr, %struct.anon }
%struct.archive = type { i32, i32, ptr, i32, ptr, i32, i32, ptr, %struct.archive_string, ptr, i32, i32, ptr, ptr, i64, i64, i64, i8, i64 }
%struct.archive_string = type { ptr, i64, i64 }
%struct.archive_read_client = type { ptr, ptr, ptr, ptr, ptr, ptr, i32, i32, i64, ptr }
%struct.archive_read_filter_bidder = type { ptr, ptr, ptr }
%struct.archive_format_descriptor = type { ptr, ptr, ptr, ptr, ptr, ptr, ptr, ptr, ptr, ptr, ptr }
%struct.anon = type { ptr, ptr, i32, ptr, ptr }
%struct.mtree = type { %struct.archive_string, i64, ptr, i64, i32, i32, ptr, ptr, ptr, %struct.archive_rb_tree, %struct.archive_string, %struct.archive_string, ptr, %struct.archive_rb_tree, i64, i8 }
%struct.archive_rb_tree = type { ptr, ptr }

@.str.45 = private unnamed_addr constant [22 x i8] c"Can't allocate memory\00", align 1
@.str.73 = private unnamed_addr constant [11 x i8] c"Can't read\00", align 1

; Function Attrs: nounwind uwtable
define internal i32 @read_data(ptr noundef %0, ptr noundef %1, ptr noundef %2, ptr noundef %3) #0 {
  %5 = alloca i32, align 4
  %6 = alloca ptr, align 8
  %7 = alloca ptr, align 8
  %8 = alloca ptr, align 8
  %9 = alloca ptr, align 8
  %10 = alloca i64, align 8
  %11 = alloca i64, align 8
  %12 = alloca ptr, align 8
  store ptr %0, ptr %6, align 8
  store ptr %1, ptr %7, align 8
  store ptr %2, ptr %8, align 8
  store ptr %3, ptr %9, align 8
  %13 = load ptr, ptr %6, align 8
  %14 = getelementptr inbounds %struct.archive_read, ptr %13, i32 0, i32 13
  %15 = load ptr, ptr %14, align 8
  %16 = getelementptr inbounds %struct.archive_format_descriptor, ptr %15, i32 0, i32 0
  %17 = load ptr, ptr %16, align 8
  store ptr %17, ptr %12, align 8
  %18 = load ptr, ptr %12, align 8
  %19 = getelementptr inbounds %struct.mtree, ptr %18, i32 0, i32 4
  %20 = load i32, ptr %19, align 8
  %21 = icmp slt i32 %20, 0
  br i1 %21, label %22, label %26

22:                                               ; preds = %4
  %23 = load ptr, ptr %7, align 8
  store ptr null, ptr %23, align 8
  %24 = load ptr, ptr %9, align 8
  store i64 0, ptr %24, align 8
  %25 = load ptr, ptr %8, align 8
  store i64 0, ptr %25, align 8
  store i32 1, ptr %5, align 4
  br label %109

26:                                               ; preds = %4
  %27 = load ptr, ptr %12, align 8
  %28 = getelementptr inbounds %struct.mtree, ptr %27, i32 0, i32 2
  %29 = load ptr, ptr %28, align 8
  %30 = icmp eq ptr %29, null
  br i1 %30, label %31, label %48

31:                                               ; preds = %26
  %32 = load ptr, ptr %12, align 8
  %33 = getelementptr inbounds %struct.mtree, ptr %32, i32 0, i32 1
  store i64 65536, ptr %33, align 8
  %34 = load ptr, ptr %12, align 8
  %35 = getelementptr inbounds %struct.mtree, ptr %34, i32 0, i32 1
  %36 = load i64, ptr %35, align 8
  %37 = call noalias ptr @malloc(i64 noundef %36) #12
  %38 = load ptr, ptr %12, align 8
  %39 = getelementptr inbounds %struct.mtree, ptr %38, i32 0, i32 2
  store ptr %37, ptr %39, align 8
  %40 = load ptr, ptr %12, align 8
  %41 = getelementptr inbounds %struct.mtree, ptr %40, i32 0, i32 2
  %42 = load ptr, ptr %41, align 8
  %43 = icmp eq ptr %42, null
  br i1 %43, label %44, label %47

44:                                               ; preds = %31
  %45 = load ptr, ptr %6, align 8
  %46 = getelementptr inbounds %struct.archive_read, ptr %45, i32 0, i32 0
  call void (ptr, i32, ptr, ...) @archive_set_error(ptr noundef %46, i32 noundef 12, ptr noundef @.str.45)
  store i32 -30, ptr %5, align 4
  br label %109

47:                                               ; preds = %31
  br label %48

48:                                               ; preds = %47, %26
  %49 = load ptr, ptr %12, align 8
  %50 = getelementptr inbounds %struct.mtree, ptr %49, i32 0, i32 2
  %51 = load ptr, ptr %50, align 8
  %52 = load ptr, ptr %7, align 8
  store ptr %51, ptr %52, align 8
  %53 = load ptr, ptr %12, align 8
  %54 = getelementptr inbounds %struct.mtree, ptr %53, i32 0, i32 3
  %55 = load i64, ptr %54, align 8
  %56 = load ptr, ptr %9, align 8
  store i64 %55, ptr %56, align 8
  %57 = load ptr, ptr %12, align 8
  %58 = getelementptr inbounds %struct.mtree, ptr %57, i32 0, i32 1
  %59 = load i64, ptr %58, align 8
  %60 = load ptr, ptr %12, align 8
  %61 = getelementptr inbounds %struct.mtree, ptr %60, i32 0, i32 14
  %62 = load i64, ptr %61, align 8
  %63 = load ptr, ptr %12, align 8
  %64 = getelementptr inbounds %struct.mtree, ptr %63, i32 0, i32 3
  %65 = load i64, ptr %64, align 8
  %66 = sub nsw i64 %62, %65
  %67 = icmp sgt i64 %59, %66
  br i1 %67, label %68, label %76

68:                                               ; preds = %48
  %69 = load ptr, ptr %12, align 8
  %70 = getelementptr inbounds %struct.mtree, ptr %69, i32 0, i32 14
  %71 = load i64, ptr %70, align 8
  %72 = load ptr, ptr %12, align 8
  %73 = getelementptr inbounds %struct.mtree, ptr %72, i32 0, i32 3
  %74 = load i64, ptr %73, align 8
  %75 = sub nsw i64 %71, %74
  store i64 %75, ptr %10, align 8
  br label %80

76:                                               ; preds = %48
  %77 = load ptr, ptr %12, align 8
  %78 = getelementptr inbounds %struct.mtree, ptr %77, i32 0, i32 1
  %79 = load i64, ptr %78, align 8
  store i64 %79, ptr %10, align 8
  br label %80

80:                                               ; preds = %76, %68
  %81 = load ptr, ptr %12, align 8
  %82 = getelementptr inbounds %struct.mtree, ptr %81, i32 0, i32 4
  %83 = load i32, ptr %82, align 8
  %84 = load ptr, ptr %12, align 8
  %85 = getelementptr inbounds %struct.mtree, ptr %84, i32 0, i32 2
  %86 = load ptr, ptr %85, align 8
  %87 = load i64, ptr %10, align 8
  %88 = call i64 @read(i32 noundef %83, ptr noundef %86, i64 noundef %87)
  store i64 %88, ptr %11, align 8
  %89 = load i64, ptr %11, align 8
  %90 = icmp slt i64 %89, 0
  br i1 %90, label %91, label %96

91:                                               ; preds = %80
  %92 = load ptr, ptr %6, align 8
  %93 = getelementptr inbounds %struct.archive_read, ptr %92, i32 0, i32 0
  %94 = call ptr @__errno_location() #13
  %95 = load i32, ptr %94, align 4
  call void (ptr, i32, ptr, ...) @archive_set_error(ptr noundef %93, i32 noundef %95, ptr noundef @.str.73)
  store i32 -20, ptr %5, align 4
  br label %109

96:                                               ; preds = %80
  %97 = load i64, ptr %11, align 8
  %98 = icmp eq i64 %97, 0
  br i1 %98, label %99, label %101

99:                                               ; preds = %96
  %100 = load ptr, ptr %8, align 8
  store i64 0, ptr %100, align 8
  store i32 1, ptr %5, align 4
  br label %109

101:                                              ; preds = %96
  %102 = load i64, ptr %11, align 8
  %103 = load ptr, ptr %12, align 8
  %104 = getelementptr inbounds %struct.mtree, ptr %103, i32 0, i32 3
  %105 = load i64, ptr %104, align 8
  %106 = add nsw i64 %105, %102
  store i64 %106, ptr %104, align 8
  %107 = load i64, ptr %11, align 8
  %108 = load ptr, ptr %8, align 8
  store i64 %107, ptr %108, align 8
  store i32 0, ptr %5, align 4
  br label %109

109:                                              ; preds = %101, %99, %91, %44, %22
  %110 = load i32, ptr %5, align 4
  ret i32 %110
}