; Function Attrs: nounwind uwtable
define internal range(i32 -30, 2) i32 @read_data(ptr noundef %0, ptr noundef writeonly captures(none) %1, ptr noundef writeonly captures(none) %2, ptr noundef writeonly captures(none) %3) #0 {
  %5 = getelementptr inbounds nuw i8, ptr %0, i64 2072
  %6 = load ptr, ptr %5, align 8
  %7 = load ptr, ptr %6, align 8
  %8 = getelementptr inbounds nuw i8, ptr %7, i64 48
  %9 = load i32, ptr %8, align 8
  %10 = icmp slt i32 %9, 0
  br i1 %10, label %11, label %12

11:                                               ; preds = %4
  store ptr null, ptr %1, align 8
  store i64 0, ptr %3, align 8
  store i64 0, ptr %2, align 8
  br label %43

12:                                               ; preds = %4
  %13 = getelementptr inbounds nuw i8, ptr %7, i64 32
  %14 = load ptr, ptr %13, align 8
  %15 = icmp eq ptr %14, null
  br i1 %15, label %16, label %21

16:                                               ; preds = %12
  %17 = getelementptr inbounds nuw i8, ptr %7, i64 24
  store i64 65536, ptr %17, align 8
  %18 = tail call noalias dereferenceable_or_null(65536) ptr @malloc(i64 noundef 65536) #23
  store ptr %18, ptr %13, align 8
  %19 = icmp eq ptr %18, null
  br i1 %19, label %20, label %21

20:                                               ; preds = %16
  tail call void (ptr, i32, ptr, ...) @archive_set_error(ptr noundef nonnull %0, i32 noundef 12, ptr noundef nonnull @.str.45) #19
  br label %43

21:                                               ; preds = %16, %12
  %22 = phi ptr [ %18, %16 ], [ %14, %12 ]
  store ptr %22, ptr %1, align 8
  %23 = getelementptr inbounds nuw i8, ptr %7, i64 40
  %24 = load i64, ptr %23, align 8
  store i64 %24, ptr %3, align 8
  %25 = getelementptr inbounds nuw i8, ptr %7, i64 24
  %26 = load i64, ptr %25, align 8
  %27 = getelementptr inbounds nuw i8, ptr %7, i64 168
  %28 = load i64, ptr %27, align 8
  %29 = sub nsw i64 %28, %24
  %. = tail call i64 @llvm.smin.i64(i64 %26, i64 %29)
  %30 = load i32, ptr %8, align 8
  %31 = load ptr, ptr %13, align 8
  %32 = tail call i64 @read(i32 noundef %30, ptr noundef %31, i64 noundef %.) #19
  %33 = icmp slt i64 %32, 0
  br i1 %33, label %34, label %37

34:                                               ; preds = %21
  %35 = tail call ptr @__errno_location() #22
  %36 = load i32, ptr %35, align 4
  tail call void (ptr, i32, ptr, ...) @archive_set_error(ptr noundef nonnull %0, i32 noundef %36, ptr noundef nonnull @.str.73) #19
  br label %43

37:                                               ; preds = %21
  %38 = icmp eq i64 %32, 0
  br i1 %38, label %39, label %40

39:                                               ; preds = %37
  store i64 0, ptr %2, align 8
  br label %43

40:                                               ; preds = %37
  %41 = load i64, ptr %23, align 8
  %42 = add nsw i64 %41, %32
  store i64 %42, ptr %23, align 8
  store i64 %32, ptr %2, align 8
  br label %43

43:                                               ; preds = %40, %39, %34, %20, %11
  %.0 = phi i32 [ 1, %11 ], [ -30, %20 ], [ -20, %34 ], [ 1, %39 ], [ 0, %40 ]
  ret i32 %.0
}